Certificate:
    Data:
        Version: 1 (0x0)
        Serial Number: 15924304083365533967 (0xdcfe7e31784e190f)
    Signature Algorithm: sha256WithRSAEncryption
        Issuer: CN=localhost
        Validity
            Not Before: Dec 29 11:51:30 2020 GMT
            Not After : Jan 28 11:51:30 2021 GMT
        Subject: CN=localhost
        Subject Public Key Info:
            Public Key Algorithm: rsaEncryption
                Public-Key: (2048 bit)
                Modulus:
                    00:a1:17:7e:f1:4d:38:02:84:8a:1e:f4:49:27:91:
                    e8:cc:0a:b6:e9:5e:a7:d9:63:6d:88:22:f5:ea:e0:
                    27:fa:19:4e:19:bc:e4:f9:4a:09:fd:1a:fa:eb:c9:
                    79:80:b5:f3:0e:12:5e:2b:fe:7d:cf:f1:41:e1:49:
                    fc:da:c6:c8:ca:b7:55:6a:7c:c7:e4:0e:c0:c4:a5:
                    fe:72:0d:4b:27:5d:dd:d9:15:02:12:4d:b1:62:87:
                    c5:ca:da:9f:86:bf:e1:a3:04:41:68:af:95:bf:79:
                    38:6b:4c:fc:eb:75:b5:0d:7e:5d:14:49:a2:a5:f1:
                    4f:1c:7c:aa:ab:fd:9d:0c:89:3d:93:96:a2:6c:99:
                    f7:77:84:5a:01:65:5b:53:a1:51:10:ec:04:66:56:
                    1b:b2:81:e5:f2:7a:bc:43:f4:f4:9e:85:be:c6:64:
                    af:ad:80:96:c2:7d:21:71:e5:1d:01:65:c9:7e:d9:
                    31:73:c4:51:40:9b:4c:13:d1:cd:7d:0c:37:f9:b3:
                    23:a2:f7:87:fa:7e:56:78:3d:21:37:70:de:d1:7e:
                    06:06:cf:fc:35:02:e3:f7:0a:ff:36:de:38:8a:fc:
                    30:1a:c2:27:0e:61:7b:87:6b:0f:96:7b:66:5b:5c:
                    d5:a5:6b:c5:cd:31:35:3b:53:c7:30:61:cc:f3:db:
                    a6:09
                Exponent: 65537 (0x10001)
    Signature Algorithm: sha256WithRSAEncryption
         20:49:27:38:33:d5:d9:c8:62:40:75:b5:a5:64:26:b7:c8:2f:
         3f:8c:0f:5a:30:23:82:69:c9:7a:f8:d1:f6:52:b9:70:9a:e9:
         8a:6c:52:0d:39:e3:14:16:a8:20:fb:dc:8d:c7:f8:6d:26:33:
         e0:73:0f:e7:38:c5:96:0a:fc:ea:e3:53:0e:08:c5:e1:02:16:
         62:95:a1:d9:36:70:eb:4b:36:5c:be:dc:d2:49:50:d8:b8:71:
         50:4b:b6:01:3a:fd:b5:2e:9d:d9:f6:34:61:74:91:11:66:d1:
         a8:0f:dd:57:59:d9:ba:f2:38:c0:34:7a:75:26:c7:57:cd:08:
         27:52:bf:58:12:3f:3b:25:a7:97:05:89:ee:35:c6:01:5d:80:
         ef:bc:b0:ab:9d:31:77:cb:c5:cb:9c:bf:03:4b:fb:bb:c4:1b:
         a4:9a:de:83:8d:5e:41:5b:9c:24:b6:51:67:8c:aa:af:b0:02:
         6d:1d:5f:1e:c9:f3:2f:97:e9:f5:e0:8f:a2:b6:a3:6b:89:dc:
         38:8c:95:69:dd:04:19:41:c5:ba:df:4b:f2:2a:d1:ab:34:7c:
         3d:3b:63:63:72:0a:9c:e3:43:6a:ca:16:74:2e:a5:9e:eb:05:
         47:cc:82:00:bd:a7:2e:7a:89:1f:66:4c:1e:52:bb:66:97:e7:
         c7:e0:4c:33
-----BEGIN CERTIFICATE-----
MIICpDCCAYwCCQDc/n4xeE4ZDzANBgkqhkiG9w0BAQsFADAUMRIwEAYDVQQDDAls
b2NhbGhvc3QwHhcNMjAxMjI5MTE1MTMwWhcNMjEwMTI4MTE1MTMwWjAUMRIwEAYD
VQQDDAlsb2NhbGhvc3QwggEiMA0GCSqGSIb3DQEBAQUAA4IBDwAwggEKAoIBAQCh
F37xTTgChIoe9EknkejMCrbpXqfZY22IIvXq4Cf6GU4ZvOT5Sgn9GvrryXmAtfMO
El4r/n3P8UHhSfzaxsjKt1VqfMfkDsDEpf5yDUsnXd3ZFQISTbFih8XK2p+Gv+Gj
BEFor5W/eThrTPzrdbUNfl0USaKl8U8cfKqr/Z0MiT2TlqJsmfd3hFoBZVtToVEQ
7ARmVhuygeXyerxD9PSehb7GZK+tgJbCfSFx5R0BZcl+2TFzxFFAm0wT0c19DDf5
syOi94f6flZ4PSE3cN7RfgYGz/w1AuP3Cv823jiK/DAawicOYXuHaw+We2ZbXNWl
a8XNMTU7U8cwYczz26YJAgMBAAEwDQYJKoZIhvcNAQELBQADggEBACBJJzgz1dnI
YkB1taVkJrfILz+MD1owI4JpyXr40fZSuXCa6YpsUg054xQWqCD73I3H+G0mM+Bz
D+c4xZYK/OrjUw4IxeECFmKVodk2cOtLNly+3NJJUNi4cVBLtgE6/bUundn2NGF0
kRFm0agP3VdZ2bryOMA0enUmx1fNCCdSv1gSPzslp5cFie41xgFdgO+8sKudMXfL
xcucvwNL+7vEG6Sa3oONXkFbnCS2UWeMqq+wAm0dXx7J8y+X6fXgj6K2o2uJ3DiM
lWndBBlBxbrfS/Iq0as0fD07Y2NyCpzjQ2rKFnQupZ7rBUfMggC9py56iR9mTB5S
u2aX58fgTDM=
-----END CERTIFICATE-----
